; Function Attrs: nounwind uwtable
define void @Ifd_ManDsdTest2() local_unnamed_addr #5 {
  %1 = alloca i32, align 4
  %2 = tail call ptr @Ifd_ManStart()
  %3 = tail call i32 @Ifd_ManFindDsd(ptr noundef %2, ptr noundef nonnull @.str.14)
  call void @llvm.lifetime.start.p0(i64 4, ptr nonnull %1) #28
  store i32 0, ptr %1, align 4, !tbaa !37
  switch i32 %3, label %6 [
    i32 0, label %4
    i32 1, label %5
  ]

4:                                                ; preds = %0
  %putchar3.i = tail call i32 @putchar(i32 48)
  br label %Ifd_ObjPrint.exit

5:                                                ; preds = %0
  %putchar.i = tail call i32 @putchar(i32 49)
  br label %Ifd_ObjPrint.exit

6:                                                ; preds = %0
  call void @Ifd_ObjPrint_rec(ptr noundef %2, i32 noundef %3, ptr noundef nonnull %1, i32 noundef 1)
  br label %Ifd_ObjPrint.exit

Ifd_ObjPrint.exit:                                ; preds = %4, %5, %6
  call void @llvm.lifetime.end.p0(i64 4, ptr nonnull %1) #28
  call void @Ifd_ManStop(ptr noundef %2)
  %putchar = call i32 @putchar(i32 10)
  ret void
}